; Function Attrs: nounwind uwtable
define range(i32 -1, 1) i32 @H5HF__man_op(ptr noundef %0, ptr noundef readonly captures(none) %1, ptr noundef readonly captures(none) %2, ptr noundef %3) local_unnamed_addr #0 {
  %5 = load i8, ptr @H5HF_init_g, align 1, !tbaa !10, !range !12, !noundef !13
  %6 = trunc nuw i8 %5 to i1
  %7 = load i8, ptr @H5_libterm_g, align 1, !range !12
  %8 = trunc nuw i8 %7 to i1
  %9 = xor i1 %8, true
  %10 = select i1 %6, i1 true, i1 %9
  br i1 %10, label %11, label %18, !prof !14

11:                                               ; preds = %4
  %12 = tail call fastcc i32 @H5HF__man_op_real(ptr noundef %0, ptr noundef %1, ptr noundef %2, ptr noundef %3, i32 noundef 0)
  %13 = icmp slt i32 %12, 0
  br i1 %13, label %14, label %18

14:                                               ; preds = %11
  %15 = load i64, ptr @H5E_HEAP_g, align 8, !tbaa !8
  %16 = load i64, ptr @H5E_CANTOPERATE_g, align 8, !tbaa !8
  %17 = tail call i32 (ptr, ptr, i32, i64, i64, ptr, ...) @H5E_printf_stack(ptr noundef nonnull @.str, ptr noundef nonnull @__func__.H5HF__man_op, i32 noundef 507, i64 noundef %15, i64 noundef %16, ptr noundef nonnull @.str.12) #5
  br label %18

18:                                               ; preds = %14, %11, %4
  %.0 = phi i32 [ -1, %14 ], [ 0, %11 ], [ 0, %4 ]
  ret i32 %.0
}